target datalayout = "e-m:e-p270:32:32-p271:32:32-p272:64:64-i64:64-i128:128-f80:128-n8:16:32:64-S128"
target triple = "x86_64-pc-linux-gnu"

%struct.archive_read = type { %struct.archive, ptr, i32, i64, i64, %struct.archive_read_client, [16 x %struct.archive_read_filter_bidder], ptr, i32, i64, i32, i32, [16 x %struct.archive_format_descriptor], ptr, ptr, ptr, %struct.anon }
%struct.archive = type { i32, i32, ptr, i32, ptr, i32, i32, ptr, %struct.archive_string, ptr, i32, i32, ptr, ptr, i64, i64, i64, i8, i64 }
%struct.archive_string = type { ptr, i64, i64 }
%struct.archive_read_client = type { ptr, ptr, ptr, ptr, ptr, ptr, i32, i32, i64, ptr }
%struct.archive_read_filter_bidder = type { ptr, ptr, ptr }
%struct.archive_format_descriptor = type { ptr, ptr, ptr, ptr, ptr, ptr, ptr, ptr, ptr, ptr, ptr }
%struct.anon = type { ptr, ptr, i32, ptr, ptr }
%struct.archive_read_data_node = type { i64, i64, ptr }
%struct.archive_read_filter = type { i64, ptr, ptr, ptr, ptr, ptr, ptr, i32, i32, i32, ptr, i64, ptr, i64, ptr, i64, ptr, i64, i8, i8, i8 }

; Function Attrs: nounwind uwtable
define internal i32 @read_client_close_proxy(ptr noundef %0) #0 {
  %2 = alloca i32, align 4
  %3 = alloca ptr, align 8
  %4 = alloca i32, align 4
  %5 = alloca i32, align 4
  %6 = alloca i32, align 4
  %7 = alloca i32, align 4
  store ptr %0, ptr %3, align 8, !tbaa !4
  call void @llvm.lifetime.start.p0(i64 4, ptr %4) #11
  store i32 0, ptr %4, align 4, !tbaa !38
  call void @llvm.lifetime.start.p0(i64 4, ptr %5) #11
  call void @llvm.lifetime.start.p0(i64 4, ptr %6) #11
  %8 = load ptr, ptr %3, align 8, !tbaa !4
  %9 = getelementptr inbounds nuw %struct.archive_read, ptr %8, i32 0, i32 5
  %10 = getelementptr inbounds nuw %struct.archive_read_client, ptr %9, i32 0, i32 4
  %11 = load ptr, ptr %10, align 8, !tbaa !41
  %12 = icmp eq ptr %11, null
  br i1 %12, label %13, label %15

13:                                               ; preds = %1
  %14 = load i32, ptr %4, align 4, !tbaa !38
  store i32 %14, ptr %2, align 4
  store i32 1, ptr %7, align 4
  br label %50

15:                                               ; preds = %1
  store i32 0, ptr %6, align 4, !tbaa !38
  br label %16

16:                                               ; preds = %45, %15
  %17 = load i32, ptr %6, align 4, !tbaa !38
  %18 = load ptr, ptr %3, align 8, !tbaa !4
  %19 = getelementptr inbounds nuw %struct.archive_read, ptr %18, i32 0, i32 5
  %20 = getelementptr inbounds nuw %struct.archive_read_client, ptr %19, i32 0, i32 6
  %21 = load i32, ptr %20, align 8, !tbaa !67
  %22 = icmp ult i32 %17, %21
  br i1 %22, label %23, label %48

23:                                               ; preds = %16
  %24 = load ptr, ptr %3, align 8, !tbaa !4
  %25 = getelementptr inbounds nuw %struct.archive_read, ptr %24, i32 0, i32 5
  %26 = getelementptr inbounds nuw %struct.archive_read_client, ptr %25, i32 0, i32 4
  %27 = load ptr, ptr %26, align 8, !tbaa !41
  %28 = load ptr, ptr %3, align 8, !tbaa !4
  %29 = load ptr, ptr %3, align 8, !tbaa !4
  %30 = getelementptr inbounds nuw %struct.archive_read, ptr %29, i32 0, i32 5
  %31 = getelementptr inbounds nuw %struct.archive_read_client, ptr %30, i32 0, i32 9
  %32 = load ptr, ptr %31, align 8, !tbaa !42
  %33 = load i32, ptr %6, align 4, !tbaa !38
  %34 = zext i32 %33 to i64
  %35 = getelementptr inbounds nuw %struct.archive_read_data_node, ptr %32, i64 %34
  %36 = getelementptr inbounds nuw %struct.archive_read_data_node, ptr %35, i32 0, i32 2
  %37 = load ptr, ptr %36, align 8, !tbaa !43
  %38 = call i32 %27(ptr noundef %28, ptr noundef %37)
  store i32 %38, ptr %5, align 4, !tbaa !38
  %39 = load i32, ptr %4, align 4, !tbaa !38
  %40 = load i32, ptr %5, align 4, !tbaa !38
  %41 = icmp sgt i32 %39, %40
  br i1 %41, label %42, label %44

42:                                               ; preds = %23
  %43 = load i32, ptr %5, align 4, !tbaa !38
  store i32 %43, ptr %4, align 4, !tbaa !38
  br label %44

44:                                               ; preds = %42, %23
  br label %45

45:                                               ; preds = %44
  %46 = load i32, ptr %6, align 4, !tbaa !38
  %47 = add i32 %46, 1
  store i32 %47, ptr %6, align 4, !tbaa !38
  br label %16, !llvm.loop !70

48:                                               ; preds = %16
  %49 = load i32, ptr %4, align 4, !tbaa !38
  store i32 %49, ptr %2, align 4
  store i32 1, ptr %7, align 4
  br label %50

50:                                               ; preds = %48, %13
  call void @llvm.lifetime.end.p0(i64 4, ptr %6) #11
  call void @llvm.lifetime.end.p0(i64 4, ptr %5) #11
  call void @llvm.lifetime.end.p0(i64 4, ptr %4) #11
  %51 = load i32, ptr %2, align 4
  ret i32 %51
}

; Function Attrs: nounwind uwtable
define internal i32 @client_close_proxy(ptr noundef %0) #0 {
  %2 = alloca ptr, align 8
  store ptr %0, ptr %2, align 8, !tbaa !45
  %3 = load ptr, ptr %2, align 8, !tbaa !45
  %4 = getelementptr inbounds nuw %struct.archive_read_filter, ptr %3, i32 0, i32 3
  %5 = load ptr, ptr %4, align 8, !tbaa !51
  %6 = call i32 @read_client_close_proxy(ptr noundef %5)
  ret i32 %6
}