; Function Attrs: nounwind uwtable
define internal range(i32 -2147483648, 1) i32 @client_close_proxy(ptr noundef readonly captures(none) %0) #0 {
  %2 = getelementptr inbounds nuw i8, ptr %0, i64 24
  %3 = load ptr, ptr %2, align 8, !tbaa !41
  %4 = getelementptr inbounds nuw i8, ptr %3, i64 208
  %5 = load ptr, ptr %4, align 8, !tbaa !34
  %6 = icmp eq ptr %5, null
  br i1 %6, label %read_client_close_proxy.exit, label %.preheader.i

.preheader.i:                                     ; preds = %1
  %7 = getelementptr inbounds nuw i8, ptr %3, i64 224
  %8 = load i32, ptr %7, align 8, !tbaa !35
  %.not.i = icmp eq i32 %8, 0
  br i1 %.not.i, label %read_client_close_proxy.exit, label %.lr.ph.i

.lr.ph.i:                                         ; preds = %.preheader.i
  %9 = getelementptr inbounds nuw i8, ptr %3, i64 240
  br label %10

10:                                               ; preds = %10, %.lr.ph.i
  %indvars.iv.i = phi i64 [ 0, %.lr.ph.i ], [ %indvars.iv.next.i, %10 ]
  %.01416.i = phi i32 [ 0, %.lr.ph.i ], [ %spec.select.i, %10 ]
  %11 = load ptr, ptr %4, align 8, !tbaa !34
  %12 = load ptr, ptr %9, align 8, !tbaa !36
  %13 = getelementptr inbounds nuw %struct.archive_read_data_node, ptr %12, i64 %indvars.iv.i, i32 2
  %14 = load ptr, ptr %13, align 8, !tbaa !37
  %15 = tail call i32 %11(ptr noundef nonnull %3, ptr noundef %14) #15
  %spec.select.i = tail call i32 @llvm.smin.i32(i32 %.01416.i, i32 %15)
  %indvars.iv.next.i = add nuw nsw i64 %indvars.iv.i, 1
  %16 = load i32, ptr %7, align 8, !tbaa !35
  %17 = zext i32 %16 to i64
  %18 = icmp samesign ult i64 %indvars.iv.next.i, %17
  br i1 %18, label %10, label %read_client_close_proxy.exit, !llvm.loop !39

read_client_close_proxy.exit:                     ; preds = %10, %1, %.preheader.i
  %.013.i = phi i32 [ 0, %1 ], [ 0, %.preheader.i ], [ %spec.select.i, %10 ]
  ret i32 %.013.i
}